target datalayout = "e-m:e-p270:32:32-p271:32:32-p272:64:64-i64:64-i128:128-f80:128-n8:16:32:64-S128"
target triple = "x86_64-pc-linux-gnu"

%struct.strbuf = type { i64, i64, ptr }
%struct.update_info_ctx = type { ptr, ptr, ptr, %struct.strbuf, %struct.strbuf }
%struct.object = type { i32, %struct.object_id }
%struct.object_id = type { [32 x i8], i32 }

@.str.6 = private unnamed_addr constant [7 x i8] c"%s\09%s\0A\00", align 1
@.str.7 = private unnamed_addr constant [10 x i8] c"%s\09%s^{}\0A\00", align 1

; Function Attrs: nounwind uwtable
define internal i32 @add_info_ref(ptr noundef %0, ptr noundef %1, ptr noundef %2, i32 noundef %3, ptr noundef %4) #0 {
  %6 = alloca i32, align 4
  %7 = alloca ptr, align 8
  %8 = alloca ptr, align 8
  %9 = alloca ptr, align 8
  %10 = alloca i32, align 4
  %11 = alloca ptr, align 8
  %12 = alloca ptr, align 8
  %13 = alloca ptr, align 8
  %14 = alloca i32, align 4
  store ptr %0, ptr %7, align 8, !tbaa !11
  store ptr %1, ptr %8, align 8, !tbaa !11
  store ptr %2, ptr %9, align 8, !tbaa !32
  store i32 %3, ptr %10, align 4, !tbaa !9
  store ptr %4, ptr %11, align 8, !tbaa !13
  call void @llvm.lifetime.start.p0(i64 8, ptr %12) #9
  %15 = load ptr, ptr %11, align 8, !tbaa !13
  store ptr %15, ptr %12, align 8, !tbaa !30
  call void @llvm.lifetime.start.p0(i64 8, ptr %13) #9
  %16 = load ptr, ptr %12, align 8, !tbaa !30
  %17 = getelementptr inbounds nuw %struct.update_info_ctx, ptr %16, i32 0, i32 0
  %18 = load ptr, ptr %17, align 8, !tbaa !16
  %19 = load ptr, ptr %9, align 8, !tbaa !32
  %20 = call ptr @parse_object(ptr noundef %18, ptr noundef %19)
  store ptr %20, ptr %13, align 8, !tbaa !34
  %21 = load ptr, ptr %13, align 8, !tbaa !34
  %22 = icmp ne ptr %21, null
  br i1 %22, label %24, label %23

23:                                               ; preds = %5
  store i32 -1, ptr %6, align 4
  store i32 1, ptr %14, align 4
  br label %59

24:                                               ; preds = %5
  %25 = load ptr, ptr %12, align 8, !tbaa !30
  %26 = load ptr, ptr %9, align 8, !tbaa !32
  %27 = call ptr @oid_to_hex(ptr noundef %26)
  %28 = load ptr, ptr %7, align 8, !tbaa !11
  %29 = call i32 (ptr, ptr, ...) @uic_printf(ptr noundef %25, ptr noundef @.str.6, ptr noundef %27, ptr noundef %28)
  %30 = icmp slt i32 %29, 0
  br i1 %30, label %31, label %32

31:                                               ; preds = %24
  store i32 -1, ptr %6, align 4
  store i32 1, ptr %14, align 4
  br label %59

32:                                               ; preds = %24
  %33 = load ptr, ptr %13, align 8, !tbaa !34
  %34 = load i32, ptr %33, align 4
  %35 = lshr i32 %34, 1
  %36 = and i32 %35, 7
  %37 = icmp eq i32 %36, 4
  br i1 %37, label %38, label %58

38:                                               ; preds = %32
  %39 = load ptr, ptr %12, align 8, !tbaa !30
  %40 = getelementptr inbounds nuw %struct.update_info_ctx, ptr %39, i32 0, i32 0
  %41 = load ptr, ptr %40, align 8, !tbaa !16
  %42 = load ptr, ptr %13, align 8, !tbaa !34
  %43 = load ptr, ptr %7, align 8, !tbaa !11
  %44 = call ptr @deref_tag(ptr noundef %41, ptr noundef %42, ptr noundef %43, i32 noundef 0)
  store ptr %44, ptr %13, align 8, !tbaa !34
  %45 = load ptr, ptr %13, align 8, !tbaa !34
  %46 = icmp ne ptr %45, null
  br i1 %46, label %47, label %57

47:                                               ; preds = %38
  %48 = load ptr, ptr %12, align 8, !tbaa !30
  %49 = load ptr, ptr %13, align 8, !tbaa !34
  %50 = getelementptr inbounds nuw %struct.object, ptr %49, i32 0, i32 1
  %51 = call ptr @oid_to_hex(ptr noundef %50)
  %52 = load ptr, ptr %7, align 8, !tbaa !11
  %53 = call i32 (ptr, ptr, ...) @uic_printf(ptr noundef %48, ptr noundef @.str.7, ptr noundef %51, ptr noundef %52)
  %54 = icmp slt i32 %53, 0
  br i1 %54, label %55, label %56

55:                                               ; preds = %47
  store i32 -1, ptr %6, align 4
  store i32 1, ptr %14, align 4
  br label %59

56:                                               ; preds = %47
  br label %57

57:                                               ; preds = %56, %38
  br label %58

58:                                               ; preds = %57, %32
  store i32 0, ptr %6, align 4
  store i32 1, ptr %14, align 4
  br label %59

59:                                               ; preds = %58, %55, %31, %23
  call void @llvm.lifetime.end.p0(i64 8, ptr %13) #9
  call void @llvm.lifetime.end.p0(i64 8, ptr %12) #9
  %60 = load i32, ptr %6, align 4
  ret i32 %60
}