; Function Attrs: nounwind uwtable
define internal range(i32 -1, 1) i32 @add_info_ref(ptr noundef %0, ptr readnone captures(none) %1, ptr noundef %2, i32 %3, ptr noundef %4) #0 {
  %6 = load ptr, ptr %4, align 8, !tbaa !33
  %7 = tail call ptr @parse_object(ptr noundef %6, ptr noundef %2) #14
  %.not = icmp eq ptr %7, null
  br i1 %.not, label %25, label %8

8:                                                ; preds = %5
  %9 = tail call ptr @oid_to_hex(ptr noundef %2) #14
  %10 = tail call i32 (ptr, ptr, ...) @uic_printf(ptr noundef nonnull %4, ptr noundef nonnull @.str.6, ptr noundef %9, ptr noundef %0)
  %11 = icmp slt i32 %10, 0
  br i1 %11, label %25, label %12

12:                                               ; preds = %8
  %13 = load i32, ptr %7, align 4
  %14 = and i32 %13, 14
  %15 = icmp eq i32 %14, 8
  br i1 %15, label %16, label %24

16:                                               ; preds = %12
  %17 = load ptr, ptr %4, align 8, !tbaa !33
  %18 = tail call ptr @deref_tag(ptr noundef %17, ptr noundef nonnull %7, ptr noundef %0, i32 noundef 0) #14
  %.not17 = icmp eq ptr %18, null
  br i1 %.not17, label %24, label %19

19:                                               ; preds = %16
  %20 = getelementptr inbounds nuw i8, ptr %18, i64 4
  %21 = tail call ptr @oid_to_hex(ptr noundef nonnull %20) #14
  %22 = tail call i32 (ptr, ptr, ...) @uic_printf(ptr noundef nonnull %4, ptr noundef nonnull @.str.7, ptr noundef %21, ptr noundef %0)
  %23 = icmp slt i32 %22, 0
  br i1 %23, label %25, label %24

24:                                               ; preds = %16, %19, %12
  br label %25

25:                                               ; preds = %19, %8, %5, %24
  %.0 = phi i32 [ 0, %24 ], [ -1, %5 ], [ -1, %8 ], [ -1, %19 ]
  ret i32 %.0
}